target datalayout = "e-m:e-p270:32:32-p271:32:32-p272:64:64-i64:64-i128:128-f80:128-n8:16:32:64-S128"
target triple = "x86_64-pc-linux-gnu"

%struct.anon = type { i32, i32, i32, i32, i32, i32, i32, %struct.replaygain_synthesis_spec_t, i32, i32, i32, i32, i32, i32, i64, i32, i32, i32, i32, i32, i32, i32, i32, i32, i32, i32, i32, i32, i32, i32, i32, ptr, ptr, %struct.analysis_options, i32, i64, [64 x %struct.compression_setting_t], i32, ptr, ptr, ptr, i32, i32, i32, i32, i32, i64, [5000 x i8], i32, ptr, i32, i32, i32, i32, i32, ptr, ptr, [64 x ptr], i32, %struct.anon.0 }
%struct.replaygain_synthesis_spec_t = type { i32, i32, i32, i32, double }
%struct.analysis_options = type { i32, i32 }
%struct.compression_setting_t = type { i32, %union.anon }
%union.anon = type { ptr }
%struct.anon.0 = type { i32, i32, i32, i32 }

@option_values = internal global %struct.anon zeroinitializer, align 8
@.str.381 = private unnamed_addr constant [30 x i8] c"too many compression settings\00", align 1

; Function Attrs: nounwind sspstrong uwtable
define internal void @add_compression_setting_uint32_t(i32 noundef %0, i32 noundef %1) #0 {
  %3 = alloca i32, align 4
  %4 = alloca i32, align 4
  store i32 %0, ptr %3, align 4, !tbaa !4
  store i32 %1, ptr %4, align 4, !tbaa !4
  %5 = load i64, ptr getelementptr inbounds nuw (%struct.anon, ptr @option_values, i32 0, i32 35), align 8, !tbaa !65
  %6 = icmp uge i64 %5, 64
  br i1 %6, label %7, label %8

7:                                                ; preds = %2
  call void @die(ptr noundef @.str.381)
  br label %8

8:                                                ; preds = %7, %2
  %9 = load i32, ptr %3, align 4, !tbaa !4
  %10 = icmp eq i32 %9, 1
  br i1 %10, label %11, label %14

11:                                               ; preds = %8
  %12 = load i32, ptr %3, align 4, !tbaa !4
  store i32 %12, ptr getelementptr inbounds nuw (%struct.anon, ptr @option_values, i32 0, i32 36), align 8, !tbaa !66
  %13 = load i32, ptr %4, align 4, !tbaa !4
  store i32 %13, ptr getelementptr inbounds nuw (%struct.compression_setting_t, ptr getelementptr inbounds nuw (%struct.anon, ptr @option_values, i32 0, i32 36), i32 0, i32 1), align 8, !tbaa !68
  br label %25

14:                                               ; preds = %8
  %15 = load i32, ptr %3, align 4, !tbaa !4
  %16 = load i64, ptr getelementptr inbounds nuw (%struct.anon, ptr @option_values, i32 0, i32 35), align 8, !tbaa !65
  %17 = getelementptr inbounds nuw [64 x %struct.compression_setting_t], ptr getelementptr inbounds nuw (%struct.anon, ptr @option_values, i32 0, i32 36), i64 0, i64 %16
  %18 = getelementptr inbounds nuw %struct.compression_setting_t, ptr %17, i32 0, i32 0
  store i32 %15, ptr %18, align 8, !tbaa !66
  %19 = load i32, ptr %4, align 4, !tbaa !4
  %20 = load i64, ptr getelementptr inbounds nuw (%struct.anon, ptr @option_values, i32 0, i32 35), align 8, !tbaa !65
  %21 = getelementptr inbounds nuw [64 x %struct.compression_setting_t], ptr getelementptr inbounds nuw (%struct.anon, ptr @option_values, i32 0, i32 36), i64 0, i64 %20
  %22 = getelementptr inbounds nuw %struct.compression_setting_t, ptr %21, i32 0, i32 1
  store i32 %19, ptr %22, align 8, !tbaa !68
  %23 = load i64, ptr getelementptr inbounds nuw (%struct.anon, ptr @option_values, i32 0, i32 35), align 8, !tbaa !65
  %24 = add i64 %23, 1
  store i64 %24, ptr getelementptr inbounds nuw (%struct.anon, ptr @option_values, i32 0, i32 35), align 8, !tbaa !65
  br label %25

25:                                               ; preds = %14, %11
  ret void
}